(lp0
S'JackBoHorseMan'
p1
aVSoyFollowBack
p2
ag2
aVantoniogilag
p3
ag2
aVPizzaBullet
p4
ag2
aVmatsie_at_dtu
p5
ag2
aVAllFreeGamesOrg
p6
ag2
aVGame__JP
p7
ag2
aVmahifilms
p8
ag2
aVJackBoHorseMan
p9
ag2
aVBerBerhemont
p10
ag2
aVqacohajebyvy
p11
ag2
aVInsomniacDisord
p12
ag2
aVFraan_DSN
p13
ag2
aVshakespearebard
p14
ag2
aVaisert75
p15
ag2
aVanam_vargass
p16
ag2
aVKellySierra_16
p17
ag2
aVDanielCpda
p18
ag2
aVmina_mohammed
p19
ag2
aVO3MejorAmigo
p20
ag2
aVwarainohierou
p21
ag2
aVnuvykixuhipu
p22
ag2
aVyubihime26
p23
ag2
aVsalimx512
p24
ag2
aValiciamartinam
p25
ag2
aVge0_Oficial
p26
ag2
aVHadiyAiZat98
p27
ag2
aVfoof1234551
p28
ag2
aVE3laN4UaE
p29
ag2
aVGwladusI
p30
ag2
aVradiolleras
p31
ag2
aVkalod6000
p32
ag2
aVkamii_ocampo
p33
ag2
aVmajidmtshr302
p34
ag2
aVlazart_luis
p35
ag2
aVbetztrs
p36
ag2
aVVhiya_Liiviaa
p37
ag2
aVjhairt
p38
ag2
aVMabTimbeta
p39
ag2
aVvicsmariis
p40
ag2
aVclaupaga781
p41
ag2
aVjuanjo1116
p42
ag2
aVtabunmaru_hiryu
p43
ag2
aVelianaGarciapo2
p44
ag2
aVMafevandro
p45
ag2
aVkevinhanrahan71
p46
ag2
aVymshooon
p47
ag2
aVAdrianxID
p48
ag2
aV5627e72b3aff48f
p49
ag2
aVtatikadiaz0822
p50
ag2
aVIgorRaphael14
p51
ag2
aVMavTimBeta
p52
ag1
aVMirul_Akim2207
p53
ag53
aViamWanieRusli
p54
ag53
aVaNgah_pyka
p55
ag53
aVezadrosly
p56
ag53
aVkhairunnisakha1
p57
ag53
aVHaikalMohamad_
p58
ag53
aVmaisarahaliah3
p59
ag53
aVWahieHariz_
p60
ag53
aVFez_zz
p61
ag53
aVhuzulfakah
p62
ag53
aVanahassan_
p63
ag53
aVnurulwahida419
p64
ag53
aVgadissado_
p65
ag53
aVefannasir
p66
ag53
aVNurinNasuhaMGS
p67
ag53
aVMyname_Fara
p68
ag53
aVfitriazan1
p69
ag53
aVnorhasyimah1997
p70
ag53
aVaminrahim63
p71
ag53
aVdirahfauzi
p72
ag53
aVhanim_sayuti
p73
ag53
aVnurfarhana132
p74
ag53
aVMrsBenot
p75
ag53
aVazlinroslan_
p76
ag53
aVFanayazid_17
p77
ag53
aViFFazrina
p78
ag53
aVfarah_aneyz
p79
ag53
aVIzzatiNazr
p80
ag53
aVmahzuz98
p81
ag53
aVKenjiBrother
p82
ag53
aVAzyzulakym
p83
ag53
aVfainleo_
p84
ag53
aVzuezlhry
p85
ag53
aVSfwxn
p86
ag53
aVJessieSeong
p87
ag53
aVfiezaalona
p88
ag53
aV_Akyas_
p89
ag53
aVKhairulFayeed
p90
ag53
aVAnissaSyamimi
p91
ag53
aVMizMoey
p92
ag53
aVKhDieyJah
p93
ag53
aVafiq_yuszaini
p94
ag53
aVLydianaNanu
p95
ag53
aVelishane96
p96
ag53
aVmaizatul_ieyzz
p97
ag53
aVAkemusz
p98
ag53
aVFaezGolek95
p99
ag53
aVcucumdehh
p100
ag53
aVdididayah
p101
ag53
aVnur_safia
p102
ag53
aVhei_Latiqah
p103
ag1
aVKevvOH_
p104
ag104
aVJohnAllure
p105
ag104
aVVimalChiyaan
p106
ag104
aVsamzsmile123
p107
ag104
aVCraigStill14
p108
ag104
aVDamnSkippyOkay
p109
ag104
aVstradivariun
p110
ag104
aVFit_To_Motivate
p111
ag104
aVALTERHITE
p112
ag104
aValnayfh1991
p113
ag104
aVManePorti
p114
ag104
aVben_abdy
p115
ag104
aVBenfranklin1
p116
ag104
aVPrincipeDoCiep
p117
ag104
aVCalzadoMartucci
p118
ag104
aVTHNDRZ
p119
ag104
aVDVBBSbrothers
p120
ag104
aVYunKEVO
p121
ag104
aVTheFunBooklets
p122
ag104
aV7438261935
p123
ag104
aVGaaraSecor
p124
ag104
aVMy_LDR_Life
p125
ag104
aVAndrea_Trejo1
p126
ag104
aVLSDTrippen
p127
ag104
aVk_kevalnatekar
p128
ag104
aVHumphMckenzy
p129
ag104
aVjorgelandu
p130
ag104
aVPagy_
p131
ag104
aVSTeeLaa1
p132
ag104
aVLucasTelon
p133
ag104
aVPeterTheTutor
p134
ag104
aVDopeBeauty___
p135
ag104
aVPrAndreFalcao
p136
ag104
aVLeMohaa18
p137
ag104
aVdavbai24
p138
ag104
aVHonestAva
p139
ag104
aVmegajordyn
p140
ag104
aVAIwaysFoIIowBak
p141
ag104
aVwakeupnowguys
p142
ag104
aVMarayanLourdes
p143
ag104
aVMdMdmunawar134
p144
ag104
aVSounedOfficial
p145
ag104
aVIamShex
p146
ag104
aVIIndicaaaa
p147
ag104
aVsa3m_to
p148
ag104
aVbuba_yero
p149
ag104
aVinloveinlovexo
p150
ag104
aVTvizzle
p151
ag104
aVfrases___futbol
p152
ag104
aVMBHR_88
p153
ag104
aVYuliQuintero73
p154
ag1
aVmahifilms
p155
ag155
aVIOO_TFB
p156
ag155
aVnooymassage
p157
ag155
aVItSwish98
p158
ag155
aVaugustobeytia
p159
ag155
aVPouFollowBack
p160
ag155
aVSoyFollowBack
p161
ag155
aVPedi_Things
p162
ag155
aVRohitKohli236
p163
ag155
aVPeaceUFO
p164
ag155
aVfollowbackcat2
p165
ag155
aVbdonesem
p166
ag155
aVYasmeen__Ghauri
p167
ag155
aVHenning_D715
p168
ag155
aVbobncat_v
p169
ag155
aVbad_bitch_xD
p170
ag155
aVajinkyarane94
p171
ag155
aVSBoreno
p172
ag155
aVPrehevent
p173
ag155
aVTheFutureKnight
p174
ag155
aVDovalAutomotive
p175
ag155
aVGainFastNow
p176
ag155
aVHSandra83147375
p177
ag155
aVRealTGL
p178
ag155
aVLeggingscl
p179
ag155
aViHealth_Coach
p180
ag155
aVKyliesmnth
p181
ag155
aVsharker102s
p182
ag155
aVKevvOH_
p183
ag155
aVraian_r
p184
ag155
aVTLE_Entertain
p185
ag155
aVaaylen2
p186
ag155
aVKleinkaapHotel
p187
ag155
aVYungHazel11
p188
ag155
aVSarabiaGaldrick
p189
ag155
aV__premonition
p190
ag155
aVRadiokelv
p191
ag155
aVpride_kevin
p192
ag155
aVsatendaryogi
p193
ag155
aVfabrizze_
p194
ag155
aVcassy_plz
p195
ag155
aVkristal_bieber
p196
ag155
aVAbhishekMogli
p197
ag155
aVAna_LeonOficial
p198
ag155
aVjimmyouselfsul1
p199
ag155
aVBid_Zilla
p200
ag155
aVoliverbazz900
p201
ag155
aVDemianRX
p202
ag155
aVawesomeRDR
p203
ag155
aVjustinxselenur
p204
ag155
aVH4H_ZAR
p205
ag1
aV_nolimit_12
p206
ag206
aVmoviein_vader
p207
ag206
aVMovieQuotesPage
p208
ag206
aVJackBoHorseMan
p209
ag206
aV310onedirectio1
p210
ag206
aVaarrrtist
p211
ag206
aVartttist
p212
ag206
aVchloe1Drebecca
p213
ag206
aVNarryLilo1D
p214
ag206
aVhybrishybris
p215
ag206
aV1Dvoterrr
p216
ag206
aV_niazkilamlD
p217
ag206
aVGordaFanDeHarry
p218
ag206
aVjacksonftstyles
p219
ag206
aVAdilmurad69
p220
ag206
aVOneDrecti0nFans
p221
ag206
aVceliamalod
p222
ag206
aVAmelie_murion
p223
ag206
aVSanctuarySpaHol
p224
ag206
aVjirafosauria
p225
ag206
aVLove_youu_Niall
p226
ag206
aVbiatchplzcomedy
p227
ag206
aVOPerney
p228
ag206
aVJojaAbdullah
p229
ag206
aVjadesbowtiexx
p230
ag206
aVFifaBets247
p231
ag206
aVph_deluxe2
p232
ag206
aVbluebirdcafex13
p233
ag206
aVkimmie_mayorga
p234
ag206
aV1D_Lyricssss
p235
ag206
aVrichdaddystyles
p236
ag206
aVharrysbraids123
p237
ag206
aVJeanHard3
p238
ag206
aVwandanunes2
p239
ag206
aVzoeeliza14
p240
ag206
aVdirection_girl9
p241
ag206
aVLyrics954
p242
ag206
aVOliwia_Sobczak
p243
ag206
aVonedirec_lyrics
p244
ag206
aVMsAidaStyles
p245
ag206
aVLjubica_1
p246
ag206
aVjanoskiwhut
p247
ag206
aVx1DSweetheart
p248
ag206
aVYuli_1DZiam
p249
ag206
aVfreefollow98560
p250
ag206
aVmenconfessionss
p251
ag206
aVAMsincefashion
p252
ag206
aVN0CL0UDS
p253
ag206
aVsaved92541
p254
ag206
aVedisbaee
p255
ag206
aVhotlikezayn1D
p256
ag1
aVFrasesSullivan
p257
ag257
aVkaren222902
p258
ag257
aVBeatrizteatro
p259
ag257
aVdanielgsantoyo
p260
ag257
aVMaferAlvesc_
p261
ag257
aVJackBoHorseMan
p262
ag257
aVPincheLava
p263
ag257
aVTuSexyMirrey
p264
ag257
aVkaky_tw
p265
ag257
aVestajovenlinda
p266
ag257
aVchalorodeiro
p267
ag257
aVcerokelvyn
p268
ag257
aVSkuIICandy
p269
ag257
aVBadTeddyBeer
p270
ag257
aVUnBarbudo
p271
ag257
aVBraianEzeLB16
p272
ag257
aVtodo561
p273
ag257
aVJulianD_C
p274
ag257
aVReykonO
p275
ag257
aVwicaley_dr
p276
ag257
aVDogmexicoficial
p277
ag257
aVJonataNothing
p278
ag257
aVandyjpaj1
p279
ag257
aVA_Rodriguez_7
p280
ag257
aVdumarr
p281
ag257
aVlavidacuenta
p282
ag257
aVxiaofon17
p283
ag257
aVchicoariasXD
p284
ag257
aVHeartmadeApps
p285
ag257
aVPabloGarvez
p286
ag257
aV_iMorenasa
p287
ag257
aVEvaMecs
p288
ag257
aVTuMiirrey
p289
ag257
aVLeonnardoJoseG
p290
ag257
aValexandergraja8
p291
ag257
aVrikasmilelfsuju
p292
ag257
aVedurojas12
p293
ag257
aVFernanda02200
p294
ag257
aVAyeeLopz
p295
ag257
aVTaaMoree
p296
ag257
aVpoicipensoalnik
p297
ag257
aV360Vn
p298
ag257
aVpaola_siliet
p299
ag257
aVBorjasilva44
p300
ag257
aVIttaiRosas
p301
ag257
aVPatriiCtf
p302
ag257
aVMicadetesei
p303
ag257
aVDavidArturoLeon
p304
ag257
aVJodidoRodri
p305
ag257
aVconstrumeka
p306
ag257
aVfrancisco_hor12
p307
ag1
aVRehammohamedxx
p308
ag308
aVa7mdsaaala7
p309
ag308
aVyasser_omar
p310
ag308
aVHossam_Hawash
p311
ag308
aVRihamHagag
p312
ag308
aVSennoief
p313
ag308
aVKhaledsenosyeg
p314
ag308
aVMustafatalat94
p315
ag308
aVJackBoHorseMan
p316
ag308
aVsayedsabea
p317
ag308
aVhamedelkhawaja
p318
ag308
aVhooorwbs
p319
ag308
aVahmadmahdey
p320
ag308
aValsharefmsstafa
p321
ag308
aVshikooo00o
p322
ag308
aVmodyelnekety
p323
ag308
aVVitaminpey
p324
ag308
aVJohnnmaher_
p325
ag308
aValpasha201512
p326
ag308
aVahmedeldsoky72
p327
ag308
aVEhabOrapi
p328
ag308
aVahmedkarrem88
p329
ag308
aVmoaidelzarka
p330
ag308
aVDinaFekry_
p331
ag308
aVm7moud_tharwatt
p332
ag308
aVhotgamesandroid
p333
ag308
aVLega_Beso
p334
ag308
aVmirawagih623
p335
ag308
aVomar_mohamed666
p336
ag308
aVKarem485
p337
ag308
aVKhaledMahmoud_
p338
ag308
aVhamoayman1
p339
ag308
aVmostafametwaly
p340
ag308
aVBasselHelal
p341
ag308
aVMekyJesus
p342
ag308
aViMOoDY
p343
ag308
aVAli_ksa1981
p344
ag308
aVrerr3336
p345
ag308
aVhemahero1993
p346
ag308
aVDecentApathy
p347
ag308
aVzackariya_amr
p348
ag308
aVHxssam
p349
ag308
aVAntonious91
p350
ag308
aVArig_talaat
p351
ag308
aVKarimSeif_
p352
ag308
aVAmr_Said96
p353
ag308
aVAcc_Follow_Back
p354
ag308
aVAbo_giigi
p355
ag308
aVwaelibrahem1991
p356
ag308
aVr_m__r
p357
ag308
aVmourad_shawky
p358
ag1
aViRaptunes
p359
ag359
aVSeductivePoem
p360
ag359
aVHennyholaOge
p361
ag359
aVjaymuiz94
p362
ag359
aVVane_Jonh
p363
ag359
aVSamorioke1
p364
ag359
aVemmanuelezeji1
p365
ag359
aVosas6661
p366
ag359
aVvaliancey
p367
ag359
aVjmarshal3
p368
ag359
aVlilim_li
p369
ag359
aVBirahim95
p370
ag359
aVgilbertjayson4
p371
ag359
aVYJoenarain
p372
ag359
aVkaly_XY
p373
ag359
aVjoshburga21
p374
ag359
aVFreshk14
p375
ag359
aVfreespirit_ofc
p376
ag359
aViisra701
p377
ag359
aVPoliticsKE
p378
ag359
aVHistoricalPicx
p379
ag359
aVmichealmzico
p380
ag359
aVrilwansmile2
p381
ag359
aVPERDOMOOOO
p382
ag359
aVYudoLexzy
p383
ag359
aVedonparis
p384
ag359
aVmartincole999
p385
ag359
aVWemishore
p386
ag359
aVThatGoToGuy
p387
ag359
aVkachi_onyeka
p388
ag359
aVAbduljatau
p389
ag359
aVcallme_damz
p390
ag359
aVOdewuyiMicheal
p391
ag359
aVlee3432000
p392
ag359
aVMilkBobby
p393
ag359
aVKRB_Mooh
p394
ag359
aVAllhaji_Billz
p395
ag359
aVBolanleApata
p396
ag359
aVo_matsola
p397
ag359
aVHazann
p398
ag359
aVCourageBand1
p399
ag359
aVSkills4u247
p400
ag359
aVanimashaunsams2
p401
ag359
aVMosesDamilare
p402
ag359
aVklinace
p403
ag359
aVbelovedkay16
p404
ag359
aVmesskarlicia
p405
ag359
aVwalidmr99
p406
ag359
aVpklaven20
p407
ag359
aVfc5c6572f03848d
p408
ag359
aVIceColdTeam
p409
ag1
aVMachadoMaiko
p410
ag410
aVViiNNyMaxZyzz
p411
ag410
aVCiumentaAoCubo
p412
ag410
aVPimemtelRodrigo
p413
ag410
aVedilsonvent
p414
ag410
aVBarretoBeca
p415
ag410
aVwelcre
p416
ag410
aVSrTrindade_
p417
ag410
aVnecrofilei
p418
ag410
aVByellHenriquee
p419
ag410
aVBreem_farias
p420
ag410
aVhumormaior
p421
ag410
aVqRGTp
p422
ag410
aVSigodevoltta
p423
ag410
aVBrodescarr
p424
ag410
aVmayaramos97
p425
ag410
aVfelipecambury
p426
ag410
aV97hectorfabio
p427
ag410
aVsei_naun
p428
ag410
aVqualetio
p429
ag410
aVSempreoDu
p430
ag410
aVCIubeFollowBack
p431
ag410
aVflaviaalbarnaes
p432
ag410
aVDrissakendlize
p433
ag410
aVluannafla
p434
ag410
aVjulierme39
p435
ag410
aVamandafeee
p436
ag410
aVMindLaunchEd
p437
ag410
aVJackBoHorseMan
p438
ag410
aVCalaBocaNubia
p439
ag410
aVang_yumi
p440
ag410
aVDanii_lindinhaa
p441
ag410
aVWilliansfc1
p442
ag410
aVBrunastefany222
p443
ag410
aVcj_durano
p444
ag410
aVMulequeiraruth1
p445
ag410
aVBiebberismylife
p446
ag410
aVCLUBEFOLLOWBACK
p447
ag410
aVCahBrandalise
p448
ag410
aVJhonnyChrist_
p449
ag410
aVpatryciagomes61
p450
ag410
aVthingoflife5sos
p451
ag410
aVWellingtonLiraR
p452
ag410
aVTalu_Silva
p453
ag410
aVMERCURY_BR
p454
ag410
aVfotosdouniverso
p455
ag410
aVCrisCR76
p456
ag410
aVPeudoloove
p457
ag410
aVnando97_MG
p458
ag410
aVSantaLadyGaga
p459
ag410
aVMANASDEY99
p460
ag1
aVstef676
p461
ag461
aVchoocaley
p462
ag461
aVAslanparrcasii
p463
ag461
aVFrancaZaza
p464
ag461
aVIJalsharifi
p465
ag461
aVTwitMadridista
p466
ag461
aVItsTine7
p467
ag461
aVmygirlthefilm
p468
ag461
aVmohmoh1418
p469
ag461
aVzohoor2a
p470
ag461
aVLaraJannicole
p471
ag461
aVDjSpykx
p472
ag461
aVTURNEDUPTYE
p473
ag461
aVretweeter654321
p474
ag461
aVazizbdran
p475
ag461
aVmdsn2013
p476
ag461
aVsteveGM3
p477
ag461
aVAAljabree
p478
ag461
aVBlack34Wolf
p479
ag461
aVwills_memorial
p480
ag461
aVestrellagolf
p481
ag461
aVgiavinss
p482
ag461
aVnaseer_otaibi
p483
ag461
aVa222___
p484
ag461
aVAbdullahSaylam
p485
ag461
aVSpencerWirtz
p486
ag461
aVhenryphisso
p487
ag461
aVHB_mutungi
p488
ag461
aVHowToStartUpNOW
p489
ag461
aVyukehaya
p490
ag461
aVrobin0210_smits
p491
ag461
aVTheaDiNerd
p492
ag461
aVRichellaa___
p493
ag461
aVWilgamSetiawan
p494
ag461
aVRazankwt
p495
ag461
aVKingCronusJr
p496
ag461
aVNGuschlbauer
p497
ag461
aVjuliameier9251
p498
ag461
aVNixRathod
p499
ag461
aVChehrii
p500
ag461
aVHattieSinclair1
p501
ag461
aVGaabii_Taah
p502
ag461
aVYour_Bitch_1
p503
ag461
aVashlye_yvonne
p504
ag461
aVPiscesBites
p505
ag461
aVruben_jaya
p506
ag461
aVgdhv325
p507
ag461
aVKokoTeddy
p508
ag461
aVSlapyourself___
p509
ag461
aVniallTEAMO09
p510
ag461
aVnonieaa
p511
ag1
aVaFollowApple
p512
ag512
aVfhdye100
p513
ag512
aVMo3Geek
p514
ag512
aVTalentLocked
p515
ag512
aVRPGOnlineGame
p516
ag512
aVMMOPokemon
p517
ag512
aVac_analy
p518
ag512
aVcarolxita2002
p519
ag512
aVluagostini35
p520
ag512
aVmaztadimessi
p521
ag512
aVMeliGStyles
p522
ag512
aVEllaZoom
p523
ag512
aV950d12db4a36452
p524
ag512
aVLaraHellme
p525
ag512
aVPlabonChy143
p526
ag512
aVnomadartdesign
p527
ag512
aVArthurBach81
p528
ag512
aVripv3
p529
ag512
aVDomonicBasson
p530
ag512
aVf3341b9039dd404
p531
ag512
aVpgmoficial29
p532
ag512
aVRebekahmaryxo
p533
ag512
aVSmokyMacPots
p534
ag512
aVarixnaslatte
p535
ag512
aVaeigh18
p536
ag512
aVJuuly93
p537
ag512
aVkaial2006
p538
ag512
aVlilmiss918
p539
ag512
aV_aboood99
p540
ag512
aVRaphieTan13
p541
ag512
aVkakaokakau
p542
ag512
aVtam_lee_
p543
ag512
aVJohn_Rice__
p544
ag512
aVBRQ300
p545
ag512
aVbbaac2012
p546
ag512
aVtweetsasastoner
p547
ag512
aVCimbomOnline
p548
ag512
aVTYLER1MGWV
p549
ag512
aVanonimno_4
p550
ag512
aVlynn_luvsu
p551
ag512
aVkardashian_lols
p552
ag512
aVgemmajeans1
p553
ag512
aVHowToStartUpNOW
p554
ag512
aVmafuckz
p555
ag512
aVanksar505
p556
ag512
aVyesemagi1
p557
ag512
aVlimharris69696
p558
ag512
aVprs_amera
p559
ag512
aVranisuma12
p560
ag512
aVTwisHx1
p561
ag512
aVJFA305
p562
ag1
aVhumbtch
p563
ag563
aVflor3_11
p564
ag563
aVPlayaFacial
p565
ag563
aVyoutubedifunde
p566
ag563
aVsintonizadass
p567
ag563
aVZuninoFrancisco
p568
ag563
aVliampijagRANDE
p569
ag563
aVolegintwitt
p570
ag563
aVpaqomytekyxo
p571
ag563
aV_excesos
p572
ag563
aVqaqaryresub
p573
ag563
aVunachiicafeliz_
p574
ag563
aVArabic_Group
p575
ag563
aVmisexyhoran
p576
ag563
aVEcletita
p577
ag563
aVConcluyoQue
p578
ag563
aVfarias_carm
p579
ag563
aVdiliwutabem
p580
ag563
aVJoseCarlosAG99
p581
ag563
aVluceral
p582
ag563
aVSelenaNieva21
p583
ag563
aVThyTalia
p584
ag563
aVcrazywomam
p585
ag563
aVsergiopadronm
p586
ag563
aVWoowMusic
p587
ag563
aVEuSaa
p588
ag563
aVdjeamigo
p589
ag563
aVtariqnoorkhan
p590
ag563
aValanristic
p591
ag563
aVMauricioTomasLP
p592
ag563
aVxyfimyvilyse
p593
ag563
aVMissZolansky
p594
ag563
aVrobertoandresil
p595
ag563
aVForBarnet
p596
ag563
aVsobralpaulinho
p597
ag563
aVmaiklaguna
p598
ag563
aVTaniaUbuyo
p599
ag563
aVTeenNationTour
p600
ag563
aV_xoxsophie
p601
ag563
aVPableteSeverson
p602
ag563
aVchowpawpaw
p603
ag563
aVchanchosUY
p604
ag563
aVcraaaaazymofoss
p605
ag563
aVelianetroca10
p606
ag563
aVTravel_SM
p607
ag563
aValberto68422090
p608
ag563
aVPaloma_Castelok
p609
ag563
aVMarOstorero
p610
ag563
aVluzmaravillaro
p611
ag563
aVRiveraFans10
p612
ag563
aVNicomillo_
p613
ag1
aVOnlineHYPE
p614
ag614
aVPINKYGONZALEZ1
p615
ag614
aVHistoricalPicx
p616
ag614
aVanitacelestin
p617
ag614
aVosas6661
p618
ag614
aVjmarshal3
p619
ag614
aVBirahim95
p620
ag614
aVkaly_XY
p621
ag614
aVOLORUNKAY
p622
ag614
aVfreespirit_ofc
p623
ag614
aVchidex500
p624
ag614
aVTanyaTimchenko
p625
ag614
aVmalezsoft
p626
ag614
aVBaby_Rome
p627
ag614
aVTomarvl14
p628
ag614
aVjosephj35776902
p629
ag614
aVpeterzarat
p630
ag614
aVMICHEALEDIDIONG
p631
ag614
aVIam_Barryyoung
p632
ag614
aVIceColdTeam
p633
ag614
aVmezieboi65
p634
ag614
aVShowcoded95
p635
ag614
aVaadexolu
p636
ag614
aVNwankwoJoe
p637
ag614
aVEze9ce
p638
ag614
aVchoice4love
p639
ag614
aVBuzzAdenike
p640
ag614
aVclbonnie4
p641
ag614
aVyuniphresh
p642
ag614
aVsklovequotes
p643
ag614
aVMuhidmahIdrith
p644
ag614
aVenny_thomas
p645
ag614
aVSiguricaZaDanas
p646
ag614
aViamDbende
p647
ag614
aVAnasC0
p648
ag614
aVnanabamfo1
p649
ag614
aVMaxclerg
p650
ag614
aVPedi_Things
p651
ag614
aVericocruzy
p652
ag614
aVStacey_Mashaba
p653
ag614
aVLizcato
p654
ag614
aVHITZONE_MEDIA
p655
ag614
aVcyril9289
p656
ag614
aVAyomide223
p657
ag614
aVKhadirap
p658
ag614
aVHERBIE_C
p659
ag614
aVEkaCrimsonDiya
p660
ag614
aVitz_kevn
p661
ag614
aVgabara05
p662
ag614
aVmsidrisuu
p663
ag614
aVdariocro5
p664
ag1
aVnetafollowback
p665
ag665
aVshingekifollow7
p666
ag665
aVDEKIGOTO_
p667
ag665
aVToastDiAbfuumss
p668
ag665
aVLoseRetCxpgtwum
p669
ag665
aVm10_yotsukaido
p670
ag665
aVhirorin012345
p671
ag665
aVSupplyMXjagobxb
p672
ag665
aVWantSorBdzmvncn
p673
ag665
aVizaulina1xavier
p674
ag665
aVReviewSCsdrpeza
p675
ag665
aVjattujtt6
p676
ag665
aVCustomLWteakcci
p677
ag665
aVm10_futtsu
p678
ag665
aVonayamisoudan0
p679
ag665
aV_kanntan_Recipe
p680
ag665
aVmunekyunkyunk
p681
ag665
aVWildSouHanqanpe
p682
ag665
aVsamo_change2
p683
ag665
aVfelnandes88
p684
ag665
aVodi0c0ms
p685
ag665
aVcarolxita2002
p686
ag665
aVm10_kamogawa
p687
ag665
aVasagi_202
p688
ag665
aVAllowSoZdvhwvgz
p689
ag665
aV4yfollow1
p690
ag665
aVyuruyuru903
p691
ag665
aVchatgirl_tv
p692
ag665
aVnewsokuvipch
p693
ag665
aVPuzzleCDclkwzfg
p694
ag665
aVuametukai
p695
ag665
aVCabinetWdyqangl
p696
ag665
aVPatLuxuJjwyushp
p697
ag665
aVMatterCFougxqrn
p698
ag665
aVruru000a
p699
ag665
aVAdvertiOuiwxmks
p700
ag665
aVPromisiIbihefbu
p701
ag665
aVchoronattsu
p702
ag665
aVRecordPJkhcdmpy
p703
ag665
aVobbkvagb
p704
ag665
aVCriticiLurgargk
p705
ag665
aVTuzcuFatih
p706
ag665
aVrggl6xku
p707
ag665
aVcoromirai1
p708
ag665
aVPillFaiQjkaahxf
p709
ag665
aVqmfzm086
p710
ag665
aVmana900109
p711
ag665
aVmana890223
p712
ag665
aVannf1swh
p713
ag665
aVyay5jupf
p714
ag665
aVInformaFljwzusz
p715
ag1
aVPushprajZala
p716
ag716
aVkrupz_trivedi
p717
ag716
aVa2758e9ade6548c
p718
ag716
aVravi201252
p719
ag716
aVdr_ruchita
p720
ag716
aVag87768
p721
ag716
aVnisheshbajpai
p722
ag716
aVmuthunadar1977
p723
ag716
aVvivek_ktr
p724
ag716
aVJevinloveskomal
p725
ag716
aVCutestLoveMsgs
p726
ag716
aVgautam_bakhru
p727
ag716
aVchacha_gajodhar
p728
ag716
aVuglyniz
p729
ag716
aVRajeshrtkashyap
p730
ag716
aVvijay2545
p731
ag716
aVarvindkumar821
p732
ag716
aVAbhinavSinghRa8
p733
ag716
aVMahipalDewal
p734
ag716
aVIECAbroad
p735
ag716
aVivan9staryc
p736
ag716
aVsudipkhila
p737
ag716
aVktn44u
p738
ag716
aVkumarpenpro
p739
ag716
aVpradeepgavi
p740
ag716
aVIamLingaa
p741
ag716
aVtkthakur5230
p742
ag716
aVaayushi412
p743
ag716
aVGamitPruthvish
p744
ag716
aVmohit_gupta545
p745
ag716
aVSubhashChaudhry
p746
ag716
aVIRelateFunPack
p747
ag716
aVGaabyBreezy
p748
ag716
aVHARDIKBHAVSAR10
p749
ag716
aVsameer04872811
p750
ag716
aVanirudhkhandal
p751
ag716
aVarjun94515
p752
ag716
aVNeelamSinha16
p753
ag716
aVSweetseii
p754
ag716
aVnityamandal3
p755
ag716
aVmgcgv
p756
ag716
aVavanindra43
p757
ag716
aVhitri04
p758
ag716
aVMarwadiJAT
p759
ag716
aVtazrin_bristy
p760
ag716
aVrimmi_12
p761
ag716
aVrachyeolekar
p762
ag716
aVdhananjay199
p763
ag716
aVmaitripathak02
p764
ag716
aVahmed11187
p765
ag716
aVashishs23066800
p766
ag1
aVScreamingSun012
p767
ag767
aVdrdrses
p768
ag767
aVMetalfamBro
p769
ag767
aVmusicquotz_
p770
ag767
aVElkin_Amy
p771
ag767
aVSpeakNoEvil84
p772
ag767
aVGrrRevolution
p773
ag767
aVNastenagontierE
p774
ag767
aVDJBeawulf
p775
ag767
aVabelbrito252
p776
ag767
aVKingDivine315
p777
ag767
aVJeanineLSeremi
p778
ag767
aVSMroczkowski
p779
ag767
aVur_lil_fun_size
p780
ag767
aVMary_M_Johnson
p781
ag767
aVDanGlover1
p782
ag767
aVRacingJohnson
p783
ag767
aVAhbabZz
p784
ag767
aVevolutionkeys
p785
ag767
aVMetalHead1555
p786
ag767
aVthesunpilots
p787
ag767
aVLuisDrayton
p788
ag767
aVOfficialReal7
p789
ag767
aVSaintsOfSin
p790
ag767
aVTurtleMyShell
p791
ag767
aVStuntman_X70
p792
ag767
aVaxxepackes
p793
ag767
aVHerAixa
p794
ag767
aVstonebywindow
p795
ag767
aVDhumassShrester
p796
ag767
aVMusicOfSum1Good
p797
ag767
aVBoamJosh
p798
ag767
aVkendulin
p799
ag767
aVDapsRhymeRight
p800
ag767
aVMusic_Yuppy
p801
ag767
aVD_PROMO_KINGS
p802
ag767
aVlindseyminaj
p803
ag767
aVChronoInjustice
p804
ag767
aV964ab072f1db4e9
p805
ag767
aVundergroundmeta
p806
ag767
aVDJ_Zetha
p807
ag767
aVWorldofAndyCapp
p808
ag767
aVstephenness2
p809
ag767
aV3rdBridge
p810
ag767
aVAngieM1007
p811
ag767
aVRadioflote
p812
ag767
aVthekoniacnet
p813
ag767
aVAASbandofficial
p814
ag767
aVDaniGon1976
p815
ag767
aVrholley58
p816
ag767
aVTheOpenFeel
p817
ag1
aVvaleriegon20
p818
ag818
aVRTWheresWaldo
p819
ag818
aVOllaideyohb
p820
ag818
aVxPatriciaLight
p821
ag818
aVDrLateNightCEO
p822
ag818
aVjirafosauria
p823
ag818
aVONDRCTN24
p824
ag818
aVNicoAlcantaraaa
p825
ag818
aVitsTheTwiddler
p826
ag818
aVVines_DaiIy
p827
ag818
aVFitMotivatorApp
p828
ag818
aVBodybuildTip
p829
ag818
aVLiftingBae
p830
ag818
aVgarboczievans
p831
ag818
aVJsksjsjKakdjd
p832
ag818
aVTheRickyFree
p833
ag818
aVheasherr
p834
ag818
aV5sosevelina
p835
ag818
aVJackBoHorseMan
p836
ag818
aVSefatHasan
p837
ag818
aVrazzat156
p838
ag818
aVSportswearSh_JP
p839
ag818
aVhybrishybris
p840
ag818
aVBen_Johnson17
p841
ag818
aVMrTanvirTarif
p842
ag818
aVmatsie_at_dtu
p843
ag818
aVbreakawaysnacks
p844
ag818
aVBamEJE
p845
ag818
aVSMJLUIS
p846
ag818
aVAnastasiaGreyUK
p847
ag818
aVPelonsMx5
p848
ag818
aVDulce_princs
p849
ag818
aVEMotionMarketin
p850
ag818
aViFollowNyoKo1
p851
ag818
aVpiercethehotdog
p852
ag818
aVMrPelonmx
p853
ag818
aVHealthTipsTwitt
p854
ag818
aVdonttouchmecunt
p855
ag818
aVGet2FitFast
p856
ag818
aVHistoricalPlays
p857
ag818
aVdeisy37284
p858
ag818
aVRealSexParty
p859
ag818
aVAdventurePics_
p860
ag818
aVTimeMachinePix
p861
ag818
aVdavidterra6
p862
ag818
aVgorgeousnovelli
p863
ag818
aV5soscalum205
p864
ag818
aVSci_Fi_Art
p865
ag818
aVM_G_W_V_
p866
ag818
aVcarlosjuanbf
p867
ag818
aVbrb_biatch
p868
ag1
aVMary_M_Johnson
p869
ag869
aVHectorVillarri
p870
ag869
aVmedyasokagii
p871
ag869
aVLINE_TURKIYE
p872
ag869
aVwise1242
p873
ag869
aVhhrajblog
p874
ag869
aVKarenMorphus
p875
ag869
aVDaKiddLegend
p876
ag869
aVdesigndivil
p877
ag869
aVElGatoRoss
p878
ag869
aVbalcifatma1965
p879
ag869
aVLaura25799
p880
ag869
aVsmit_parmar11
p881
ag869
aVDss1962
p882
ag869
aVdaugherty8067
p883
ag869
aVAeroyaltyFilms
p884
ag869
aVrezeptfamilie
p885
ag869
aVSALAMAKTF
p886
ag869
aVAkshaytwitt
p887
ag869
aVEricBuzzUp
p888
ag869
aVYung1Yoke
p889
ag869
aVhyde_bobby
p890
ag869
aVIbr_m_99
p891
ag869
aVCasino_YES
p892
ag869
aVEnergyDrinkRen
p893
ag869
aVpathofangels
p894
ag869
aVjejusoravic
p895
ag869
aVanimelover7546
p896
ag869
aVJoanyVc17
p897
ag869
aVBYE_NannieMay
p898
ag869
aVClriCarlos
p899
ag869
aVCarlosAlvarez37
p900
ag869
aVcraigthardy99
p901
ag869
aVdanybulan
p902
ag869
aVKhameleonWoman
p903
ag869
aVclaudiobpacheco
p904
ag869
aVHaythorneViveka
p905
ag869
aVshanepmcdonald
p906
ag869
aVnorthwestreact
p907
ag869
aVpamelajrogers
p908
ag869
aVScarsOficcial
p909
ag869
aVhumourmachine
p910
ag869
aVKINGGRAINT
p911
ag869
aVJeffskaratbars
p912
ag869
aVSoloAnaLucia
p913
ag869
aVTCChicagoFan
p914
ag869
aVIMLEA2
p915
ag869
aVEXTERMINADORSA2
p916
ag869
aVJonnhyBrown
p917
ag869
aVBroerSugiantoro
p918
ag869
aVdjsteviegee
p919
ag1
aVhoranwxsted
p920
ag920
aVFREEFOL72271438
p921
ag920
aVmaliks_booty
p922
ag920
aV1D_Toronto
p923
ag920
aVRandom_Dolittle
p924
ag920
aVRainmusicand1D
p925
ag920
aVGetAwayMessages
p926
ag920
aVFlREPROOFLOU
p927
ag920
aVhazustustfios
p928
ag920
aVRanyyax
p929
ag920
aV90slljp
p930
ag920
aVlanakudek
p931
ag920
aVmaliciousfxck
p932
ag920
aVsleighbellafi
p933
ag920
aVfr33foIIow__
p934
ag920
aVgilinskyglasses
p935
ag920
aVOllaideyohb
p936
ag920
aVWarren_Ebony
p937
ag920
aVlovleyyluke
p938
ag920
aVjirafosauria
p939
ag920
aVjanofxckjames
p940
ag920
aVarcticstrokesup
p941
ag920
aVlittleminiash
p942
ag920
aVDiegoJabouin
p943
ag920
aVCaliboyCameron
p944
ag920
aVcliffordxffs
p945
ag920
aVkyla_lawler
p946
ag920
aVbandscondom
p947
ag920
aVtbhjustgetlost
p948
ag920
aVswisstyles
p949
ag920
aVNicoAlcantaraaa
p950
ag920
aVfireproof212
p951
ag920
aV1d_suha
p952
ag920
aVroughxlayouts
p953
ag920
aVebolaash
p954
ag920
aVsinnersnj
p955
ag920
aVjessechandler51
p956
ag920
aVJackBoHorseMan
p957
ag920
aVleslieben161
p958
ag920
aVFOLLOW4DAYS101
p959
ag920
aVmimodallas
p960
ag920
aVrobert220154
p961
ag920
aVlighthousehemmo
p962
ag920
aVTamaraPxllard
p963
ag920
aVSamantha5SOS
p964
ag920
aVsunlightsad
p965
ag920
aVlargehandsirwin
p966
ag920
aVcraicalize
p967
ag920
aVharrywaterfaII
p968
ag920
aVIostsoulslarry
p969
ag920
aVmelxbombis
p970
ag1
aVrobsonalvesreal
p971
ag971
aVtoocoolforsam
p972
ag971
aVdanymartinslac1
p973
ag971
aVIzaHannadeSouza
p974
ag971
aVnnnetooo
p975
ag971
aVFernandaRW
p976
ag971
aVdenis_amaro
p977
ag971
aVEletroDM
p978
ag971
aVkfe_oliveira
p979
ag971
aVwp_suporte
p980
ag971
aVuthiieIZANATIC
p981
ag971
aVRcostaLuci
p982
ag971
aVMfatyMiranda
p983
ag971
aVJC_Metedor
p984
ag971
aVbetjoaosergio
p985
ag971
aVmimorgado2
p986
ag971
aVIsa_Silva99
p987
ag971
aVricharrom030487
p988
ag971
aVEnmanuelitoh
p989
ag971
aVsantimunevar8
p990
ag971
aVpatycaldana
p991
ag971
aVLupita_Camac
p992
ag971
aVkamyla_batista
p993
ag971
aVbulledilsone
p994
ag971
aVEcriture2
p995
ag971
aVFaFabioluiz
p996
ag971
aVBarretoBeca
p997
ag971
aVMr_Dieego
p998
ag971
aVhigh_on_glitter
p999
ag971
aVthiaguinhoplay1
p1000
ag971
aVjosimar_75
p1001
ag971
aVlonestarreps
p1002
ag971
aVtracker_motojp
p1003
ag971
aVtoinholima
p1004
ag971
aVGroupWebCamChat
p1005
ag971
aVolhameumacho
p1006
ag971
aVfofinhoof
p1007
ag971
aVArtCorDecoracao
p1008
ag971
aVMedrell
p1009
ag971
aVrooseveltruzaum
p1010
ag971
aVjechuperea
p1011
ag971
aVhanun_caldera
p1012
ag971
aVRaventosJavier
p1013
ag971
aVzeusmoema1177
p1014
ag971
aVJackieBCN
p1015
ag971
aVamericogoncalv2
p1016
ag971
aVealdenirlima
p1017
ag971
aVTheIsaacLion
p1018
ag971
aV4ndtorres
p1019
ag971
aVedmiracema
p1020
ag971
aVthalessrocha
p1021
ag1
aVDream_World11
p1022
ag1022
aV10_habeba
p1023
ag1022
aVBelalTaha2014
p1024
ag1022
aVShetoooooos20
p1025
ag1022
aVabdohamdy8005
p1026
ag1022
aVelsawyraafat
p1027
ag1022
aVosamaanwar19
p1028
ag1022
aVFEhinsh
p1029
ag1022
aVmayoya_tawfik
p1030
ag1022
aVAhmedelrify1
p1031
ag1022
aVtolienn
p1032
ag1022
aVaya_moawad96
p1033
ag1022
aVminanaguibf
p1034
ag1022
aVOmar_Mexii
p1035
ag1022
aVAhmedEltahan20
p1036
ag1022
aVMayadaSalama
p1037
ag1022
aVyahooco45941472
p1038
ag1022
aV7assankassem
p1039
ag1022
aVbakhet_2020
p1040
ag1022
aVmamdouh20221
p1041
ag1022
aVmuhamedKago
p1042
ag1022
aVmohamedozo53
p1043
ag1022
aVZandyHossam
p1044
ag1022
aVmohamedsaeed238
p1045
ag1022
aVBashaA71
p1046
ag1022
aVSeifKassem
p1047
ag1022
aVesraa_nasser
p1048
ag1022
aVyosrey
p1049
ag1022
aVlolojaheen
p1050
ag1022
aVtraptivate
p1051
ag1022
aVJolyOptics
p1052
ag1022
aVmostafafawzi65
p1053
ag1022
aVmahmoudbond97
p1054
ag1022
aV3ssaaa
p1055
ag1022
aVAhmedAlkber1994
p1056
ag1022
aVholom__be
p1057
ag1022
aVOsama_sadik
p1058
ag1022
aVIslaamTaamer
p1059
ag1022
aVwesamadel54
p1060
ag1022
aVmemo_asfour
p1061
ag1022
aVKenya_Arias
p1062
ag1022
aVAntika200
p1063
ag1022
aVmohamedbeso1231
p1064
ag1022
aVDr_ELramly
p1065
ag1022
aVOmar_Mesbah
p1066
ag1022
aVmustafashafiq1
p1067
ag1022
aVeslamlooma
p1068
ag1022
aVsherif_mahalawy
p1069
ag1022
aVNoraH19_7
p1070
ag1022
aVMenaGamal596
p1071
ag1022
aV_277773564885
p1072
ag1
aVTheChrisWoodard
p1073
ag1073
aVvubifaqumawe
p1074
ag1073
aVbvbbabe1
p1075
ag1073
aVShitty_Bambi17
p1076
ag1073
aVMiaLoveReita
p1077
ag1073
aVGeorginaa_heree
p1078
ag1073
aVpeliber3
p1079
ag1073
aV5sos_WorldS16
p1080
ag1073
aVJeniseSutphen86
p1081
ag1073
aVIDCheaters
p1082
ag1073
aVbadideasmusic
p1083
ag1073
aVkrislaakso
p1084
ag1073
aVGreece_official
p1085
ag1073
aVS_hardaee
p1086
ag1073
aV11Daveiga
p1087
ag1073
aVkolhoosiarvo
p1088
ag1073
aVasmaaalnimi
p1089
ag1073
aVnayeli_xkid
p1090
ag1073
aVMCCANNALC0HOL
p1091
ag1073
aVgrandeftbiebsx
p1092
ag1073
aVlloydskiiii
p1093
ag1073
aVIts_Just_Naomi
p1094
ag1073
aVsxreams
p1095
ag1073
aVFreshSensations
p1096
ag1073
aVMinzyGoo12
p1097
ag1073
aVGinaStyles4
p1098
ag1073
aVIdontknow2341
p1099
ag1073
aVallen9503062826
p1100
ag1073
aVPamelay10
p1101
ag1073
aVHarryRaed
p1102
ag1073
aVcashlovemeh
p1103
ag1073
aVdirectioner876
p1104
ag1073
aVSLAYSNARRY
p1105
ag1073
aVelliespalding
p1106
ag1073
aVDAPPERLABELS
p1107
ag1073
aVLaritapze
p1108
ag1073
aVlukes_unicorn18
p1109
ag1073
aVHornyLocals
p1110
ag1073
aVxcloeeeyxx
p1111
ag1073
aVmariayhh
p1112
ag1073
aVtyrifaporema
p1113
ag1073
aVelliewolf14
p1114
ag1073
aVJustSoCupcake
p1115
ag1073
aVamyamysnoddy
p1116
ag1073
aVputehmrsydh_
p1117
ag1073
aVdisgusted_
p1118
ag1073
aVlukeyssweater
p1119
ag1073
aVspidxrwebs
p1120
ag1073
aVCamjade98
p1121
ag1073
aVPoisonedlifee
p1122
ag1073
aVKayMaria_
p1123
ag1
aVFB4ckTeam
p1124
ag1124
aVALFACOMEDY
p1125
ag1124
aVDanyoliver31
p1126
ag1124
aVMesh_clothstore
p1127
ag1124
aVAllFreeGamesOrg
p1128
ag1124
aVLayek25Ahmed
p1129
ag1124
aVmahifilms
p1130
ag1124
aV_deliriomental
p1131
ag1124
aVGlen241
p1132
ag1124
aVA1S1J
p1133
ag1124
aVJThom343
p1134
ag1124
aVlanniewright
p1135
ag1124
aVcherrycrushfan
p1136
ag1124
aVSeryEmy
p1137
ag1124
aVMurad16Ahmed
p1138
ag1124
aVbrian_2222
p1139
ag1124
aVspecialkrs1
p1140
ag1124
aVWiechecBorelli
p1141
ag1124
aVPowellsTaylor
p1142
ag1124
aVLeggingscl
p1143
ag1124
aVamyrive59
p1144
ag1124
aVOdununuz02
p1145
ag1124
aVtorontofollowz
p1146
ag1124
aVOHNfunnypics
p1147
ag1124
aVMikeyB_ThePoet
p1148
ag1124
aV_silent_xoxo
p1149
ag1124
aVLazy_Gaming_TV
p1150
ag1124
aVcharuwakakc
p1151
ag1124
aVig_modelagency
p1152
ag1124
aV633bdb3d04c64e6
p1153
ag1124
aVHipHop_EST
p1154
ag1124
aVTaylorqCarkqaMT
p1155
ag1124
aVFollowBackCesar
p1156
ag1124
aVTheSpeakerMedia
p1157
ag1124
aVLaNuevaEraFilm
p1158
ag1124
aVKab_Bojonegoro
p1159
ag1124
aVTekniklanmou
p1160
ag1124
aVdavidfernan92
p1161
ag1124
aVGeneralLights
p1162
ag1124
aVEtchi_
p1163
ag1124
aVcicekozcelik507
p1164
ag1124
aVUCristianos
p1165
ag1124
aVYoungDevoMusic
p1166
ag1124
aVIchikawaHarkins
p1167
ag1124
aVFrances03897930
p1168
ag1124
aVISayFuck2Much
p1169
ag1124
aVAbhishekMogli
p1170
ag1124
aVDebbieL81839163
p1171
ag1124
aVCapCityBookShop
p1172
ag1124
aVAudraoHumphreys
p1173
ag1124
aVShakoorwali
p1174
ag1
aV88FollowBack88
p1175
ag1175
aVLaeraGDH
p1176
ag1175
aVSamotwitte
p1177
ag1175
aVfollowbt0001
p1178
ag1175
aVOzmy_p
p1179
ag1175
aVgourmetdepon
p1180
ag1175
aVgourmetbt0503
p1181
ag1175
aVgeeddayjp024
p1182
ag1175
aVphrasedujour_v
p1183
ag1175
aVNavyRihanna
p1184
ag1175
aVTopBilliard
p1185
ag1175
aVqualetio
p1186
ag1175
aVaurinoribeiro
p1187
ag1175
aVana_anakarenn
p1188
ag1175
aVNawangsariH
p1189
ag1175
aVTimTrad
p1190
ag1175
aVALWAAN_7
p1191
ag1175
aVdanielamalaverh
p1192
ag1175
aVcvnxswep
p1193
ag1175
aVVYVYANCRAIG
p1194
ag1175
aVworlasss
p1195
ag1175
aVsabiaspilulas
p1196
ag1175
aVrichmondopoku45
p1197
ag1175
aVBookDealDaily
p1198
ag1175
aVletoilePatrick_
p1199
ag1175
aVpjs691de
p1200
ag1175
aV4uk_uu
p1201
ag1175
aVSc2_eb
p1202
ag1175
aVBu_1rk
p1203
ag1175
aV2rb_Scu
p1204
ag1175
aVMarkasBaba
p1205
ag1175
aViElFilosofo
p1206
ag1175
aVkaijb357
p1207
ag1175
aVthetruthontv
p1208
ag1175
aVLuboradC
p1209
ag1175
aVAna_gedda
p1210
ag1175
aVlordofparis
p1211
ag1175
aVRonildo_Silva12
p1212
ag1175
aVfollowdeai003
p1213
ag1175
aVtha432rosa
p1214
ag1175
aV0topsi
p1215
ag1175
aVRealEstateRec
p1216
ag1175
aVaroos1983
p1217
ag1175
aVMrCashChasin
p1218
ag1175
aVmariospost
p1219
ag1175
aVJeffersonBrag14
p1220
ag1175
aVZMcfetrich
p1221
ag1175
aVhdsjkaz
p1222
ag1175
aVSucederas_Lo_Se
p1223
ag1175
aVmatsie_at_dtu
p1224
ag1175
aVxPatriciaLight
p1225
ag1
aVMaurice2007
p1226
ag1226
aVKellah1
p1227
ag1226
aVBodi20O
p1228
ag1226
aVmirbovie
p1229
ag1226
aVKaramillaaa
p1230
ag1226
aVthe_best_rider
p1231
ag1226
aVtakipucaginiz
p1232
ag1226
aVArthurJordz
p1233
ag1226
aVMelani657
p1234
ag1226
aVHikmetkan
p1235
ag1226
aV28b3fa2afbb24dd
p1236
ag1226
aVsorrow_dragon
p1237
ag1226
aVdoukanycetepe
p1238
ag1226
aVardasari48
p1239
ag1226
aVyorlenyszapata
p1240
ag1226
aVVIPSTORE9
p1241
ag1226
aVRoggellio
p1242
ag1226
aVkumbharaj
p1243
ag1226
aVodunofficall
p1244
ag1226
aVThankGOD4Zari
p1245
ag1226
aVPicsFunnyCenter
p1246
ag1226
aVteenwolfer_spn
p1247
ag1226
aVfangirl_5eves
p1248
ag1226
aVtamara_twilight
p1249
ag1226
aVderya_htc
p1250
ag1226
aVjosegabriel555
p1251
ag1226
aVEceTRken437
p1252
ag1226
aVStarlin_StarKid
p1253
ag1226
aVMOLINAHUSBAND
p1254
ag1226
aVitsanimals
p1255
ag1226
aVApseMatlb
p1256
ag1226
aVATbeatsPro
p1257
ag1226
aVenaborejustin30
p1258
ag1226
aVmerve0519
p1259
ag1226
aVShirzadiDavid
p1260
ag1226
aVLuke_fuck_Ash
p1261
ag1226
aVRaisurya785S
p1262
ag1226
aVSilvanaLaliga
p1263
ag1226
aValicik_1907
p1264
ag1226
aVTrevTweetz
p1265
ag1226
aVAdeniransesan
p1266
ag1226
aVAbdoEljokar
p1267
ag1226
aVJordszay
p1268
ag1226
aVmuhammaddilda11
p1269
ag1226
aVTY__tanic
p1270
ag1226
aVhenzib1rs
p1271
ag1226
aVermnkrtbn373
p1272
ag1226
aVclaudia77646897
p1273
ag1226
aVitscoolnadia2
p1274
ag1226
aVsonggsandlyrics
p1275
ag1226
aVninita_iballe
p1276
a.